target datalayout = "e-m:e-p270:32:32-p271:32:32-p272:64:64-i64:64-i128:128-f80:128-n8:16:32:64-S128"
target triple = "x86_64-pc-linux-gnu"

; Function Attrs: nounwind uwtable
define i32 @check_in_list(ptr noundef %0, i16 noundef zeroext %1, ptr noundef %2, i64 noundef %3, i32 noundef %4, ptr noundef %5) #0 {
  %7 = alloca i32, align 4
  %8 = alloca ptr, align 8
  %9 = alloca i16, align 2
  %10 = alloca ptr, align 8
  %11 = alloca i64, align 8
  %12 = alloca i32, align 4
  %13 = alloca ptr, align 8
  %14 = alloca i64, align 8
  %15 = alloca i32, align 4
  %16 = alloca i16, align 2
  store ptr %0, ptr %8, align 8, !tbaa !18
  store i16 %1, ptr %9, align 2, !tbaa !278
  store ptr %2, ptr %10, align 8, !tbaa !279
  store i64 %3, ptr %11, align 8, !tbaa !76
  store i32 %4, ptr %12, align 4, !tbaa !85
  store ptr %5, ptr %13, align 8, !tbaa !158
  call void @llvm.lifetime.start.p0(i64 8, ptr %14) #9
  %17 = load ptr, ptr %10, align 8, !tbaa !279
  %18 = icmp eq ptr %17, null
  br i1 %18, label %22, label %19

19:                                               ; preds = %6
  %20 = load i64, ptr %11, align 8, !tbaa !76
  %21 = icmp eq i64 %20, 0
  br i1 %21, label %22, label %23

22:                                               ; preds = %19, %6
  store i32 0, ptr %7, align 4
  store i32 1, ptr %15, align 4
  br label %61

23:                                               ; preds = %19
  store i64 0, ptr %14, align 8, !tbaa !76
  br label %24

24:                                               ; preds = %57, %23
  %25 = load i64, ptr %14, align 8, !tbaa !76
  %26 = load i64, ptr %11, align 8, !tbaa !76
  %27 = icmp ult i64 %25, %26
  br i1 %27, label %28, label %60

28:                                               ; preds = %24
  call void @llvm.lifetime.start.p0(i64 2, ptr %16) #9
  %29 = load ptr, ptr %10, align 8, !tbaa !279
  %30 = load i64, ptr %14, align 8, !tbaa !76
  %31 = getelementptr inbounds nuw i16, ptr %29, i64 %30
  %32 = load i16, ptr %31, align 2, !tbaa !278
  store i16 %32, ptr %16, align 2, !tbaa !278
  %33 = load i16, ptr %9, align 2, !tbaa !278
  %34 = zext i16 %33 to i32
  %35 = load i16, ptr %16, align 2, !tbaa !278
  %36 = zext i16 %35 to i32
  %37 = icmp eq i32 %34, %36
  br i1 %37, label %38, label %53

38:                                               ; preds = %28
  %39 = load i32, ptr %12, align 4, !tbaa !85
  %40 = icmp ne i32 %39, 0
  br i1 %40, label %41, label %46

41:                                               ; preds = %38
  %42 = load ptr, ptr %8, align 8, !tbaa !18
  %43 = load i16, ptr %16, align 2, !tbaa !278
  %44 = call i32 @tls_group_allowed(ptr noundef %42, i16 noundef zeroext %43, i32 noundef 131078)
  %45 = icmp ne i32 %44, 0
  br i1 %45, label %46, label %53

46:                                               ; preds = %41, %38
  %47 = load ptr, ptr %13, align 8, !tbaa !158
  %48 = icmp ne ptr %47, null
  br i1 %48, label %49, label %52

49:                                               ; preds = %46
  %50 = load i64, ptr %14, align 8, !tbaa !76
  %51 = load ptr, ptr %13, align 8, !tbaa !158
  store i64 %50, ptr %51, align 8, !tbaa !76
  br label %52

52:                                               ; preds = %49, %46
  store i32 1, ptr %7, align 4
  store i32 1, ptr %15, align 4
  br label %54

53:                                               ; preds = %41, %28
  store i32 0, ptr %15, align 4
  br label %54

54:                                               ; preds = %53, %52
  call void @llvm.lifetime.end.p0(i64 2, ptr %16) #9
  %55 = load i32, ptr %15, align 4
  switch i32 %55, label %61 [
    i32 0, label %56
  ]

56:                                               ; preds = %54
  br label %57

57:                                               ; preds = %56
  %58 = load i64, ptr %14, align 8, !tbaa !76
  %59 = add i64 %58, 1
  store i64 %59, ptr %14, align 8, !tbaa !76
  br label %24, !llvm.loop !280

60:                                               ; preds = %24
  store i32 0, ptr %7, align 4
  store i32 1, ptr %15, align 4
  br label %61

61:                                               ; preds = %60, %54, %22
  call void @llvm.lifetime.end.p0(i64 8, ptr %14) #9
  %62 = load i32, ptr %7, align 4
  ret i32 %62
}