; Function Attrs: nounwind uwtable
define range(i32 0, 2) i32 @check_in_list(ptr noundef %0, i16 noundef zeroext %1, ptr noundef readonly captures(address_is_null) %2, i64 noundef %3, i32 noundef %4, ptr noundef writeonly captures(address_is_null) %5) local_unnamed_addr #0 {
  %7 = icmp eq ptr %2, null
  %8 = icmp eq i64 %3, 0
  %or.cond = or i1 %7, %8
  br i1 %or.cond, label %.critedge, label %.preheader

.preheader:                                       ; preds = %6
  %.not = icmp eq i32 %4, 0
  br i1 %.not, label %.preheader.split.us, label %.preheader.split

.preheader.split.us:                              ; preds = %.preheader, %12
  %.01825.us = phi i64 [ %13, %12 ], [ 0, %.preheader ]
  %9 = getelementptr inbounds nuw i16, ptr %2, i64 %.01825.us
  %10 = load i16, ptr %9, align 2, !tbaa !243
  %11 = icmp eq i16 %1, %10
  br i1 %11, label %.split.us, label %12

12:                                               ; preds = %.preheader.split.us
  %13 = add nuw i64 %.01825.us, 1
  %exitcond31.not = icmp eq i64 %13, %3
  br i1 %exitcond31.not, label %.critedge, label %.preheader.split.us, !llvm.loop !244

.preheader.split:                                 ; preds = %.preheader, %20
  %.01825 = phi i64 [ %21, %20 ], [ 0, %.preheader ]
  %14 = getelementptr inbounds nuw i16, ptr %2, i64 %.01825
  %15 = load i16, ptr %14, align 2, !tbaa !243
  %16 = icmp eq i16 %1, %15
  br i1 %16, label %17, label %20

17:                                               ; preds = %.preheader.split
  %18 = tail call i32 @tls_group_allowed(ptr noundef %0, i16 noundef zeroext %1, i32 noundef 131078) #11
  %.not22 = icmp eq i32 %18, 0
  br i1 %.not22, label %20, label %.split.us

.split.us:                                        ; preds = %17, %.preheader.split.us
  %.us-phi = phi i64 [ %.01825.us, %.preheader.split.us ], [ %.01825, %17 ]
  %.not23 = icmp eq ptr %5, null
  br i1 %.not23, label %.critedge, label %19

19:                                               ; preds = %.split.us
  store i64 %.us-phi, ptr %5, align 8, !tbaa !72
  br label %.critedge

20:                                               ; preds = %17, %.preheader.split
  %21 = add nuw i64 %.01825, 1
  %exitcond.not = icmp eq i64 %21, %3
  br i1 %exitcond.not, label %.critedge, label %.preheader.split, !llvm.loop !244

.critedge:                                        ; preds = %20, %12, %19, %.split.us, %6
  %.0 = phi i32 [ 0, %6 ], [ 1, %.split.us ], [ 1, %19 ], [ 0, %12 ], [ 0, %20 ]
  ret i32 %.0
}